target datalayout = "e-m:e-p270:32:32-p271:32:32-p272:64:64-i64:64-i128:128-f80:128-n8:16:32:64-S128"
target triple = "x86_64-pc-linux-gnu"

%struct.H264Picture = type { ptr, %struct.ThreadFrame, ptr, ptr, ptr, [2 x ptr], [2 x ptr], ptr, ptr, ptr, [2 x ptr], [2 x i32], i32, i32, i32, i32, i32, [2 x [2 x [32 x i32]]], [2 x [2 x i32]], i32, i32, i32, i32, i32, i32, i32, ptr, i32, i32, i32, ptr, i32 }
%struct.ThreadFrame = type { ptr, [2 x ptr], ptr }
%struct.ERPicture = type { ptr, ptr, ptr, [2 x ptr], [2 x ptr], ptr, i32 }

; Function Attrs: nounwind uwtable
define void @ff_h264_set_erpic(ptr noundef %0, ptr noundef %1) #0 {
  %3 = alloca ptr, align 8
  %4 = alloca ptr, align 8
  %5 = alloca i32, align 4
  %6 = alloca i32, align 4
  store ptr %0, ptr %3, align 8, !tbaa !53
  store ptr %1, ptr %4, align 8, !tbaa !4
  call void @llvm.lifetime.start.p0(i64 4, ptr %5) #7
  %7 = load ptr, ptr %3, align 8, !tbaa !53
  call void @llvm.memset.p0.i64(ptr align 8 %7, i8 0, i64 72, i1 false)
  %8 = load ptr, ptr %4, align 8, !tbaa !4
  %9 = icmp ne ptr %8, null
  br i1 %9, label %11, label %10

10:                                               ; preds = %2
  store i32 1, ptr %6, align 4
  br label %61

11:                                               ; preds = %2
  %12 = load ptr, ptr %4, align 8, !tbaa !4
  %13 = getelementptr inbounds nuw %struct.H264Picture, ptr %12, i32 0, i32 0
  %14 = load ptr, ptr %13, align 8, !tbaa !11
  %15 = load ptr, ptr %3, align 8, !tbaa !53
  %16 = getelementptr inbounds nuw %struct.ERPicture, ptr %15, i32 0, i32 0
  store ptr %14, ptr %16, align 8, !tbaa !55
  %17 = load ptr, ptr %4, align 8, !tbaa !4
  %18 = getelementptr inbounds nuw %struct.H264Picture, ptr %17, i32 0, i32 1
  %19 = load ptr, ptr %3, align 8, !tbaa !53
  %20 = getelementptr inbounds nuw %struct.ERPicture, ptr %19, i32 0, i32 1
  store ptr %18, ptr %20, align 8, !tbaa !59
  store i32 0, ptr %5, align 4, !tbaa !9
  br label %21

21:                                               ; preds = %47, %11
  %22 = load i32, ptr %5, align 4, !tbaa !9
  %23 = icmp slt i32 %22, 2
  br i1 %23, label %24, label %50

24:                                               ; preds = %21
  %25 = load ptr, ptr %4, align 8, !tbaa !4
  %26 = getelementptr inbounds nuw %struct.H264Picture, ptr %25, i32 0, i32 6
  %27 = load i32, ptr %5, align 4, !tbaa !9
  %28 = sext i32 %27 to i64
  %29 = getelementptr inbounds [2 x ptr], ptr %26, i64 0, i64 %28
  %30 = load ptr, ptr %29, align 8, !tbaa !29
  %31 = load ptr, ptr %3, align 8, !tbaa !53
  %32 = getelementptr inbounds nuw %struct.ERPicture, ptr %31, i32 0, i32 3
  %33 = load i32, ptr %5, align 4, !tbaa !9
  %34 = sext i32 %33 to i64
  %35 = getelementptr inbounds [2 x ptr], ptr %32, i64 0, i64 %34
  store ptr %30, ptr %35, align 8, !tbaa !29
  %36 = load ptr, ptr %4, align 8, !tbaa !4
  %37 = getelementptr inbounds nuw %struct.H264Picture, ptr %36, i32 0, i32 10
  %38 = load i32, ptr %5, align 4, !tbaa !9
  %39 = sext i32 %38 to i64
  %40 = getelementptr inbounds [2 x ptr], ptr %37, i64 0, i64 %39
  %41 = load ptr, ptr %40, align 8, !tbaa !31
  %42 = load ptr, ptr %3, align 8, !tbaa !53
  %43 = getelementptr inbounds nuw %struct.ERPicture, ptr %42, i32 0, i32 4
  %44 = load i32, ptr %5, align 4, !tbaa !9
  %45 = sext i32 %44 to i64
  %46 = getelementptr inbounds [2 x ptr], ptr %43, i64 0, i64 %45
  store ptr %41, ptr %46, align 8, !tbaa !31
  br label %47

47:                                               ; preds = %24
  %48 = load i32, ptr %5, align 4, !tbaa !9
  %49 = add nsw i32 %48, 1
  store i32 %49, ptr %5, align 4, !tbaa !9
  br label %21, !llvm.loop !60

50:                                               ; preds = %21
  %51 = load ptr, ptr %4, align 8, !tbaa !4
  %52 = getelementptr inbounds nuw %struct.H264Picture, ptr %51, i32 0, i32 8
  %53 = load ptr, ptr %52, align 8, !tbaa !36
  %54 = load ptr, ptr %3, align 8, !tbaa !53
  %55 = getelementptr inbounds nuw %struct.ERPicture, ptr %54, i32 0, i32 5
  store ptr %53, ptr %55, align 8, !tbaa !61
  %56 = load ptr, ptr %4, align 8, !tbaa !4
  %57 = getelementptr inbounds nuw %struct.H264Picture, ptr %56, i32 0, i32 20
  %58 = load i32, ptr %57, align 8, !tbaa !44
  %59 = load ptr, ptr %3, align 8, !tbaa !53
  %60 = getelementptr inbounds nuw %struct.ERPicture, ptr %59, i32 0, i32 6
  store i32 %58, ptr %60, align 8, !tbaa !62
  store i32 0, ptr %6, align 4
  br label %61

61:                                               ; preds = %50, %10
  call void @llvm.lifetime.end.p0(i64 4, ptr %5) #7
  %62 = load i32, ptr %6, align 4
  switch i32 %62, label %64 [
    i32 0, label %63
    i32 1, label %63
  ]

63:                                               ; preds = %61, %61
  ret void

64:                                               ; preds = %61
  unreachable
}