; Function Attrs: nofree norecurse nosync nounwind memory(argmem: readwrite) uwtable
define void @ff_h264_set_erpic(ptr noundef writeonly captures(none) initializes((0, 72)) %0, ptr noundef %1) local_unnamed_addr #4 {
  tail call void @llvm.memset.p0.i64(ptr noundef nonnull align 8 dereferenceable(72) %0, i8 0, i64 72, i1 false)
  %.not = icmp eq ptr %1, null
  br i1 %.not, label %24, label %.critedge

.critedge:                                        ; preds = %2
  %3 = load ptr, ptr %1, align 8, !tbaa !4
  store ptr %3, ptr %0, align 8, !tbaa !46
  %4 = getelementptr inbounds nuw i8, ptr %1, i64 8
  %5 = getelementptr inbounds nuw i8, ptr %0, i64 8
  store ptr %4, ptr %5, align 8, !tbaa !50
  %6 = getelementptr inbounds nuw i8, ptr %1, i64 80
  %7 = getelementptr inbounds nuw i8, ptr %0, i64 24
  %8 = getelementptr inbounds nuw i8, ptr %1, i64 120
  %9 = getelementptr inbounds nuw i8, ptr %0, i64 40
  %10 = load ptr, ptr %6, align 8, !tbaa !24
  store ptr %10, ptr %7, align 8, !tbaa !24
  %11 = load ptr, ptr %8, align 8, !tbaa !26
  store ptr %11, ptr %9, align 8, !tbaa !26
  %12 = getelementptr inbounds nuw i8, ptr %1, i64 88
  %13 = load ptr, ptr %12, align 8, !tbaa !24
  %14 = getelementptr inbounds nuw i8, ptr %0, i64 32
  store ptr %13, ptr %14, align 8, !tbaa !24
  %15 = getelementptr inbounds nuw i8, ptr %1, i64 128
  %16 = load ptr, ptr %15, align 8, !tbaa !26
  %17 = getelementptr inbounds nuw i8, ptr %0, i64 48
  store ptr %16, ptr %17, align 8, !tbaa !26
  %18 = getelementptr inbounds nuw i8, ptr %1, i64 104
  %19 = load ptr, ptr %18, align 8, !tbaa !30
  %20 = getelementptr inbounds nuw i8, ptr %0, i64 56
  store ptr %19, ptr %20, align 8, !tbaa !51
  %21 = getelementptr inbounds nuw i8, ptr %1, i64 696
  %22 = load i32, ptr %21, align 8, !tbaa !37
  %23 = getelementptr inbounds nuw i8, ptr %0, i64 64
  store i32 %22, ptr %23, align 8, !tbaa !52
  br label %24

24:                                               ; preds = %2, %.critedge
  ret void
}